; Function Attrs: nounwind uwtable
define noalias nonnull ptr @l_Lean_Elab_Tactic_Omega_commitWhen___rarg___lambda__1___boxed(ptr noundef %0, ptr noundef %1, ptr noundef %2, ptr noundef %3, ptr noundef %4, ptr noundef %5, ptr noundef %6, ptr noundef %7, ptr noundef %8, ptr noundef %9, ptr noundef %10, ptr noundef %11) local_unnamed_addr #1 {
  %13 = ptrtoint ptr %5 to i64
  %14 = and i64 %13, 1
  %.not = icmp eq i64 %14, 0
  br i1 %.not, label %15, label %lean_dec.exit31

15:                                               ; preds = %12
  %16 = load i32, ptr %5, align 4, !tbaa !8
  %17 = icmp sgt i32 %16, 1
  br i1 %17, label %18, label %20, !prof !11

18:                                               ; preds = %15
  %19 = add nsw i32 %16, -1
  store i32 %19, ptr %5, align 4, !tbaa !8
  br label %lean_dec.exit31

20:                                               ; preds = %15
  %.not.i = icmp eq i32 %16, 0
  br i1 %.not.i, label %lean_dec.exit31, label %21

21:                                               ; preds = %20
  tail call void @lean_dec_ref_cold(ptr noundef nonnull %5) #4
  br label %lean_dec.exit31

lean_dec.exit31:                                  ; preds = %21, %20, %18, %12
  tail call void @lean_inc_heartbeat() #4
  %22 = tail call noalias ptr @mi_malloc_small(i64 noundef 24) #4
  %23 = icmp eq ptr %22, null
  br i1 %23, label %24, label %l_Lean_Elab_Tactic_Omega_commitWhen___rarg___lambda__1.exit

24:                                               ; preds = %lean_dec.exit31
  tail call void @lean_internal_panic_out_of_memory() #5
  unreachable

l_Lean_Elab_Tactic_Omega_commitWhen___rarg___lambda__1.exit: ; preds = %lean_dec.exit31
  %25 = getelementptr inbounds nuw i8, ptr %22, i64 4
  store i32 1, ptr %22, align 4, !tbaa !8
  store i32 131096, ptr %25, align 4
  %26 = getelementptr inbounds nuw i8, ptr %22, i64 8
  store ptr %0, ptr %26, align 8, !tbaa !4
  %27 = getelementptr inbounds nuw i8, ptr %22, i64 16
  store ptr %11, ptr %27, align 8, !tbaa !4
  %28 = ptrtoint ptr %10 to i64
  %29 = and i64 %28, 1
  %.not50 = icmp eq i64 %29, 0
  br i1 %.not50, label %30, label %lean_dec.exit30

30:                                               ; preds = %l_Lean_Elab_Tactic_Omega_commitWhen___rarg___lambda__1.exit
  %31 = load i32, ptr %10, align 4, !tbaa !8
  %32 = icmp sgt i32 %31, 1
  br i1 %32, label %33, label %35, !prof !11

33:                                               ; preds = %30
  %34 = add nsw i32 %31, -1
  store i32 %34, ptr %10, align 4, !tbaa !8
  br label %lean_dec.exit30

35:                                               ; preds = %30
  %.not.i32 = icmp eq i32 %31, 0
  br i1 %.not.i32, label %lean_dec.exit30, label %36

36:                                               ; preds = %35
  tail call void @lean_dec_ref_cold(ptr noundef nonnull %10) #4
  br label %lean_dec.exit30

lean_dec.exit30:                                  ; preds = %36, %35, %33, %l_Lean_Elab_Tactic_Omega_commitWhen___rarg___lambda__1.exit
  %37 = ptrtoint ptr %9 to i64
  %38 = and i64 %37, 1
  %.not51 = icmp eq i64 %38, 0
  br i1 %.not51, label %39, label %lean_dec.exit29

39:                                               ; preds = %lean_dec.exit30
  %40 = load i32, ptr %9, align 4, !tbaa !8
  %41 = icmp sgt i32 %40, 1
  br i1 %41, label %42, label %44, !prof !11

42:                                               ; preds = %39
  %43 = add nsw i32 %40, -1
  store i32 %43, ptr %9, align 4, !tbaa !8
  br label %lean_dec.exit29

44:                                               ; preds = %39
  %.not.i34 = icmp eq i32 %40, 0
  br i1 %.not.i34, label %lean_dec.exit29, label %45

45:                                               ; preds = %44
  tail call void @lean_dec_ref_cold(ptr noundef nonnull %9) #4
  br label %lean_dec.exit29

lean_dec.exit29:                                  ; preds = %45, %44, %42, %lean_dec.exit30
  %46 = ptrtoint ptr %8 to i64
  %47 = and i64 %46, 1
  %.not52 = icmp eq i64 %47, 0
  br i1 %.not52, label %48, label %lean_dec.exit28

48:                                               ; preds = %lean_dec.exit29
  %49 = load i32, ptr %8, align 4, !tbaa !8
  %50 = icmp sgt i32 %49, 1
  br i1 %50, label %51, label %53, !prof !11

51:                                               ; preds = %48
  %52 = add nsw i32 %49, -1
  store i32 %52, ptr %8, align 4, !tbaa !8
  br label %lean_dec.exit28

53:                                               ; preds = %48
  %.not.i36 = icmp eq i32 %49, 0
  br i1 %.not.i36, label %lean_dec.exit28, label %54

54:                                               ; preds = %53
  tail call void @lean_dec_ref_cold(ptr noundef nonnull %8) #4
  br label %lean_dec.exit28

lean_dec.exit28:                                  ; preds = %54, %53, %51, %lean_dec.exit29
  %55 = ptrtoint ptr %7 to i64
  %56 = and i64 %55, 1
  %.not53 = icmp eq i64 %56, 0
  br i1 %.not53, label %57, label %lean_dec.exit27

57:                                               ; preds = %lean_dec.exit28
  %58 = load i32, ptr %7, align 4, !tbaa !8
  %59 = icmp sgt i32 %58, 1
  br i1 %59, label %60, label %62, !prof !11

60:                                               ; preds = %57
  %61 = add nsw i32 %58, -1
  store i32 %61, ptr %7, align 4, !tbaa !8
  br label %lean_dec.exit27

62:                                               ; preds = %57
  %.not.i38 = icmp eq i32 %58, 0
  br i1 %.not.i38, label %lean_dec.exit27, label %63

63:                                               ; preds = %62
  tail call void @lean_dec_ref_cold(ptr noundef nonnull %7) #4
  br label %lean_dec.exit27

lean_dec.exit27:                                  ; preds = %63, %62, %60, %lean_dec.exit28
  %64 = ptrtoint ptr %6 to i64
  %65 = and i64 %64, 1
  %.not54 = icmp eq i64 %65, 0
  br i1 %.not54, label %66, label %lean_dec.exit26

66:                                               ; preds = %lean_dec.exit27
  %67 = load i32, ptr %6, align 4, !tbaa !8
  %68 = icmp sgt i32 %67, 1
  br i1 %68, label %69, label %71, !prof !11

69:                                               ; preds = %66
  %70 = add nsw i32 %67, -1
  store i32 %70, ptr %6, align 4, !tbaa !8
  br label %lean_dec.exit26

71:                                               ; preds = %66
  %.not.i40 = icmp eq i32 %67, 0
  br i1 %.not.i40, label %lean_dec.exit26, label %72

72:                                               ; preds = %71
  tail call void @lean_dec_ref_cold(ptr noundef nonnull %6) #4
  br label %lean_dec.exit26

lean_dec.exit26:                                  ; preds = %72, %71, %69, %lean_dec.exit27
  %73 = ptrtoint ptr %4 to i64
  %74 = and i64 %73, 1
  %.not55 = icmp eq i64 %74, 0
  br i1 %.not55, label %75, label %lean_dec.exit25

75:                                               ; preds = %lean_dec.exit26
  %76 = load i32, ptr %4, align 4, !tbaa !8
  %77 = icmp sgt i32 %76, 1
  br i1 %77, label %78, label %80, !prof !11

78:                                               ; preds = %75
  %79 = add nsw i32 %76, -1
  store i32 %79, ptr %4, align 4, !tbaa !8
  br label %lean_dec.exit25

80:                                               ; preds = %75
  %.not.i42 = icmp eq i32 %76, 0
  br i1 %.not.i42, label %lean_dec.exit25, label %81

81:                                               ; preds = %80
  tail call void @lean_dec_ref_cold(ptr noundef nonnull %4) #4
  br label %lean_dec.exit25

lean_dec.exit25:                                  ; preds = %81, %80, %78, %lean_dec.exit26
  %82 = ptrtoint ptr %3 to i64
  %83 = and i64 %82, 1
  %.not56 = icmp eq i64 %83, 0
  br i1 %.not56, label %84, label %lean_dec.exit24

84:                                               ; preds = %lean_dec.exit25
  %85 = load i32, ptr %3, align 4, !tbaa !8
  %86 = icmp sgt i32 %85, 1
  br i1 %86, label %87, label %89, !prof !11

87:                                               ; preds = %84
  %88 = add nsw i32 %85, -1
  store i32 %88, ptr %3, align 4, !tbaa !8
  br label %lean_dec.exit24

89:                                               ; preds = %84
  %.not.i44 = icmp eq i32 %85, 0
  br i1 %.not.i44, label %lean_dec.exit24, label %90

90:                                               ; preds = %89
  tail call void @lean_dec_ref_cold(ptr noundef nonnull %3) #4
  br label %lean_dec.exit24

lean_dec.exit24:                                  ; preds = %90, %89, %87, %lean_dec.exit25
  %91 = ptrtoint ptr %2 to i64
  %92 = and i64 %91, 1
  %.not57 = icmp eq i64 %92, 0
  br i1 %.not57, label %93, label %lean_dec.exit23

93:                                               ; preds = %lean_dec.exit24
  %94 = load i32, ptr %2, align 4, !tbaa !8
  %95 = icmp sgt i32 %94, 1
  br i1 %95, label %96, label %98, !prof !11

96:                                               ; preds = %93
  %97 = add nsw i32 %94, -1
  store i32 %97, ptr %2, align 4, !tbaa !8
  br label %lean_dec.exit23

98:                                               ; preds = %93
  %.not.i46 = icmp eq i32 %94, 0
  br i1 %.not.i46, label %lean_dec.exit23, label %99

99:                                               ; preds = %98
  tail call void @lean_dec_ref_cold(ptr noundef nonnull %2) #4
  br label %lean_dec.exit23

lean_dec.exit23:                                  ; preds = %99, %98, %96, %lean_dec.exit24
  %100 = ptrtoint ptr %1 to i64
  %101 = and i64 %100, 1
  %.not58 = icmp eq i64 %101, 0
  br i1 %.not58, label %102, label %lean_dec.exit

102:                                              ; preds = %lean_dec.exit23
  %103 = load i32, ptr %1, align 4, !tbaa !8
  %104 = icmp sgt i32 %103, 1
  br i1 %104, label %105, label %107, !prof !11

105:                                              ; preds = %102
  %106 = add nsw i32 %103, -1
  store i32 %106, ptr %1, align 4, !tbaa !8
  br label %lean_dec.exit

107:                                              ; preds = %102
  %.not.i48 = icmp eq i32 %103, 0
  br i1 %.not.i48, label %lean_dec.exit, label %108

108:                                              ; preds = %107
  tail call void @lean_dec_ref_cold(ptr noundef nonnull %1) #4
  br label %lean_dec.exit

lean_dec.exit:                                    ; preds = %108, %107, %105, %lean_dec.exit23
  ret ptr %22
}